; Function Attrs: nounwind uwtable
define void @Aig_ManStartReverseLevels(ptr noundef %0, i32 noundef %1) local_unnamed_addr #1 {
  %3 = tail call i32 @Aig_ManLevels(ptr noundef %0) #14
  %4 = add nsw i32 %3, %1
  %5 = getelementptr inbounds nuw i8, ptr %0, i64 288
  store i32 %4, ptr %5, align 8, !tbaa !27
  %calloc.i = tail call noalias noundef dereferenceable_or_null(16) ptr @calloc(i64 1, i64 16)
  %6 = getelementptr inbounds nuw i8, ptr %0, i64 280
  store ptr %calloc.i, ptr %6, align 8, !tbaa !3
  %7 = getelementptr i8, ptr %0, i64 32
  %.val17 = load ptr, ptr %7, align 8, !tbaa !29
  %8 = getelementptr i8, ptr %.val17, i64 4
  %.val17.val = load i32, ptr %8, align 4, !tbaa !35
  %.not.i.i = icmp sgt i32 %.val17.val, 0
  br i1 %.not.i.i, label %.lr.ph.i, label %Vec_IntFill.exit

.lr.ph.i:                                         ; preds = %2
  %9 = getelementptr inbounds nuw i8, ptr %calloc.i, i64 8
  %10 = zext nneg i32 %.val17.val to i64
  %11 = shl nuw nsw i64 %10, 2
  %12 = tail call noalias ptr @malloc(i64 noundef %11) #13
  store ptr %12, ptr %9, align 8, !tbaa !25
  store i32 %.val17.val, ptr %calloc.i, align 8, !tbaa !24
  %13 = zext nneg i32 %.val17.val to i64
  %14 = shl nuw nsw i64 %13, 2
  tail call void @llvm.memset.p0.i64(ptr align 4 %12, i8 0, i64 %14, i1 false), !tbaa !26
  br label %Vec_IntFill.exit

Vec_IntFill.exit:                                 ; preds = %2, %.lr.ph.i
  %15 = getelementptr inbounds nuw i8, ptr %calloc.i, i64 4
  store i32 %.val17.val, ptr %15, align 4, !tbaa !22
  %16 = tail call ptr @Aig_ManDfsReverse(ptr noundef nonnull %0) #14
  %17 = getelementptr i8, ptr %16, i64 4
  %.val1619 = load i32, ptr %17, align 4, !tbaa !35
  %18 = icmp sgt i32 %.val1619, 0
  br i1 %18, label %.lr.ph, label %.critedge

.lr.ph:                                           ; preds = %Vec_IntFill.exit
  %19 = getelementptr i8, ptr %16, i64 8
  br label %20

20:                                               ; preds = %.lr.ph, %Aig_ObjSetReverseLevel.exit
  %indvars.iv = phi i64 [ 0, %.lr.ph ], [ %indvars.iv.next, %Aig_ObjSetReverseLevel.exit ]
  %.val = load ptr, ptr %19, align 8, !tbaa !30
  %21 = getelementptr inbounds nuw ptr, ptr %.val, i64 %indvars.iv
  %22 = load ptr, ptr %21, align 8, !tbaa !32
  %23 = tail call i32 @Aig_ObjReverseLevelNew(ptr noundef nonnull %0, ptr noundef %22)
  %24 = load ptr, ptr %6, align 8, !tbaa !3
  %25 = getelementptr inbounds nuw i8, ptr %22, i64 36
  %26 = load i32, ptr %25, align 4, !tbaa !21
  %27 = add nsw i32 %26, 1
  %28 = getelementptr inbounds nuw i8, ptr %24, i64 4
  %29 = load i32, ptr %28, align 4, !tbaa !22
  %.not.i.not.i = icmp slt i32 %26, %29
  br i1 %.not.i.not.i, label %Aig_ObjSetReverseLevel.exit, label %30

30:                                               ; preds = %20
  %31 = load i32, ptr %24, align 8, !tbaa !24
  %32 = shl nsw i32 %31, 1
  %.not.i = icmp slt i32 %26, %32
  %.not.i.i.not.i = icmp sgt i32 %31, %26
  br i1 %.not.i, label %45, label %33

33:                                               ; preds = %30
  br i1 %.not.i.i.not.i, label %Vec_IntGrow.exit.i.i, label %34

34:                                               ; preds = %33
  %35 = getelementptr inbounds nuw i8, ptr %24, i64 8
  %36 = load ptr, ptr %35, align 8, !tbaa !25
  %.not9.i.i.i = icmp eq ptr %36, null
  %37 = sext i32 %27 to i64
  %38 = shl nsw i64 %37, 2
  br i1 %.not9.i.i.i, label %41, label %39

39:                                               ; preds = %34
  %40 = tail call ptr @realloc(ptr noundef nonnull %36, i64 noundef %38) #12
  br label %43

41:                                               ; preds = %34
  %42 = tail call noalias ptr @malloc(i64 noundef %38) #13
  br label %43

43:                                               ; preds = %41, %39
  %44 = phi ptr [ %40, %39 ], [ %42, %41 ]
  store ptr %44, ptr %35, align 8, !tbaa !25
  br label %Vec_IntGrow.exit.sink.split.i.i

45:                                               ; preds = %30
  br i1 %.not.i.i.not.i, label %Vec_IntGrow.exit.i.i, label %46

46:                                               ; preds = %45
  %47 = getelementptr inbounds nuw i8, ptr %24, i64 8
  %48 = load ptr, ptr %47, align 8, !tbaa !25
  %.not9.i21.i.i = icmp eq ptr %48, null
  %49 = sext i32 %32 to i64
  %50 = shl nsw i64 %49, 2
  br i1 %.not9.i21.i.i, label %53, label %51

51:                                               ; preds = %46
  %52 = tail call ptr @realloc(ptr noundef nonnull %48, i64 noundef %50) #12
  br label %55

53:                                               ; preds = %46
  %54 = tail call noalias ptr @malloc(i64 noundef %50) #13
  br label %55

55:                                               ; preds = %53, %51
  %56 = phi ptr [ %52, %51 ], [ %54, %53 ]
  store ptr %56, ptr %47, align 8, !tbaa !25
  br label %Vec_IntGrow.exit.sink.split.i.i

Vec_IntGrow.exit.sink.split.i.i:                  ; preds = %55, %43
  %.sink.i.i = phi i32 [ %32, %55 ], [ %27, %43 ]
  store i32 %.sink.i.i, ptr %24, align 8, !tbaa !24
  %.pre.i = load i32, ptr %28, align 4, !tbaa !22
  br label %Vec_IntGrow.exit.i.i

Vec_IntGrow.exit.i.i:                             ; preds = %Vec_IntGrow.exit.sink.split.i.i, %45, %33
  %57 = phi i32 [ %.pre.i, %Vec_IntGrow.exit.sink.split.i.i ], [ %29, %45 ], [ %29, %33 ]
  %.not4.i = icmp sgt i32 %57, %26
  br i1 %.not4.i, label %._crit_edge.i.i, label %.lr.ph.i.i

.lr.ph.i.i:                                       ; preds = %Vec_IntGrow.exit.i.i
  %58 = getelementptr inbounds nuw i8, ptr %24, i64 8
  %59 = load ptr, ptr %58, align 8, !tbaa !25
  %60 = sext i32 %57 to i64
  %61 = shl nsw i64 %60, 2
  %scevgep.i.i = getelementptr i8, ptr %59, i64 %61
  %62 = sub i32 %26, %57
  %63 = zext i32 %62 to i64
  %64 = shl nuw nsw i64 %63, 2
  %65 = add nuw nsw i64 %64, 4
  tail call void @llvm.memset.p0.i64(ptr noundef nonnull align 4 dereferenceable(1) %scevgep.i.i, i8 0, i64 %65, i1 false), !tbaa !26
  br label %._crit_edge.i.i

._crit_edge.i.i:                                  ; preds = %.lr.ph.i.i, %Vec_IntGrow.exit.i.i
  store i32 %27, ptr %28, align 4, !tbaa !22
  %.pre5.i = load ptr, ptr %6, align 8, !tbaa !3
  %.pre6.i = load i32, ptr %25, align 4, !tbaa !21
  br label %Aig_ObjSetReverseLevel.exit

Aig_ObjSetReverseLevel.exit:                      ; preds = %20, %._crit_edge.i.i
  %66 = phi i32 [ %26, %20 ], [ %.pre6.i, %._crit_edge.i.i ]
  %67 = phi ptr [ %24, %20 ], [ %.pre5.i, %._crit_edge.i.i ]
  %68 = getelementptr i8, ptr %67, i64 8
  %.val.i = load ptr, ptr %68, align 8, !tbaa !25
  %69 = sext i32 %66 to i64
  %70 = getelementptr inbounds i32, ptr %.val.i, i64 %69
  store i32 %23, ptr %70, align 4, !tbaa !26
  %indvars.iv.next = add nuw nsw i64 %indvars.iv, 1
  %.val16 = load i32, ptr %17, align 4, !tbaa !35
  %71 = sext i32 %.val16 to i64
  %72 = icmp slt i64 %indvars.iv.next, %71
  br i1 %72, label %20, label %.critedge, !llvm.loop !36

.critedge:                                        ; preds = %Aig_ObjSetReverseLevel.exit, %Vec_IntFill.exit
  %73 = getelementptr inbounds nuw i8, ptr %16, i64 8
  %74 = load ptr, ptr %73, align 8, !tbaa !30
  %.not.i18 = icmp eq ptr %74, null
  br i1 %.not.i18, label %Vec_PtrFree.exit, label %75

75:                                               ; preds = %.critedge
  tail call void @free(ptr noundef nonnull %74) #14
  br label %Vec_PtrFree.exit

Vec_PtrFree.exit:                                 ; preds = %.critedge, %75
  tail call void @free(ptr noundef nonnull %16) #14
  ret void
}